target datalayout = "e-m:e-p270:32:32-p271:32:32-p272:64:64-i64:64-i128:128-f80:128-n8:16:32:64-S128"
target triple = "x86_64-pc-linux-gnu"

%class.b3LauncherCL = type { ptr, ptr, ptr, i32, [4 x i8], %class.b3AlignedObjectArray, i32, i8, ptr, %class.b3AlignedObjectArray.0 }
%class.b3AlignedObjectArray = type <{ [4 x i8], i32, i32, [4 x i8], ptr, i8, [7 x i8] }>
%class.b3AlignedObjectArray.0 = type <{ [4 x i8], i32, i32, [4 x i8], ptr, i8, [7 x i8] }>
%struct.b3KernelArgData = type { i32, i32, i32, i32, %union.anon }
%union.anon = type { ptr, [8 x i8] }

@__clewEnqueueReadBuffer = external global ptr, align 8
@__clewFinish = external global ptr, align 8

; Function Attrs: inlinehint mustprogress nounwind uwtable
define linkonce_odr dso_local noundef nonnull align 16 dereferenceable(32) ptr @_ZN20b3AlignedObjectArrayI15b3KernelArgDataEixEi(ptr noundef nonnull align 8 dereferenceable(25) %0, i32 noundef %1) #4 comdat align 2 {
  %3 = alloca ptr, align 8
  %4 = alloca i32, align 4
  store ptr %0, ptr %3, align 8, !tbaa !36
  store i32 %1, ptr %4, align 4, !tbaa !34
  %5 = load ptr, ptr %3, align 8
  %6 = getelementptr inbounds nuw %class.b3AlignedObjectArray, ptr %5, i32 0, i32 4
  %7 = load ptr, ptr %6, align 8, !tbaa !57
  %8 = load i32, ptr %4, align 4, !tbaa !34
  %9 = sext i32 %8 to i64
  %10 = getelementptr inbounds %struct.b3KernelArgData, ptr %7, i64 %9
  ret ptr %10
}

; Function Attrs: inlinehint mustprogress nounwind uwtable
define linkonce_odr dso_local noundef i32 @_ZNK20b3AlignedObjectArrayI15b3KernelArgDataE4sizeEv(ptr noundef nonnull align 8 dereferenceable(25) %0) #4 comdat align 2 {
  %2 = alloca ptr, align 8
  store ptr %0, ptr %2, align 8, !tbaa !36
  %3 = load ptr, ptr %2, align 8
  %4 = getelementptr inbounds nuw %class.b3AlignedObjectArray, ptr %3, i32 0, i32 1
  %5 = load i32, ptr %4, align 4, !tbaa !58
  ret i32 %5
}

; Function Attrs: mustprogress uwtable
define dso_local noundef i32 @_ZN12b3LauncherCL18serializeArgumentsEPhi(ptr noundef nonnull align 8 dereferenceable(112) %0, ptr noundef %1, i32 noundef %2) #0 align 2 {
  %4 = alloca ptr, align 8
  %5 = alloca ptr, align 8
  %6 = alloca i32, align 4
  %7 = alloca i32, align 4
  %8 = alloca i32, align 4
  %9 = alloca i32, align 4
  %10 = alloca ptr, align 8
  %11 = alloca i32, align 4
  %12 = alloca ptr, align 8
  %13 = alloca i32, align 4
  store ptr %0, ptr %4, align 8, !tbaa !4
  store ptr %1, ptr %5, align 8, !tbaa !13
  store i32 %2, ptr %6, align 4, !tbaa !34
  %14 = load ptr, ptr %4, align 8
  call void @llvm.lifetime.start.p0(i64 4, ptr %7) #10
  store i32 0, ptr %7, align 4, !tbaa !34
  br label %15

15:                                               ; preds = %25, %3
  %16 = load i32, ptr %7, align 4, !tbaa !34
  %17 = load i32, ptr %6, align 4, !tbaa !34
  %18 = icmp slt i32 %16, %17
  br i1 %18, label %20, label %19

19:                                               ; preds = %15
  call void @llvm.lifetime.end.p0(i64 4, ptr %7) #10
  br label %28

20:                                               ; preds = %15
  %21 = load ptr, ptr %5, align 8, !tbaa !13
  %22 = load i32, ptr %7, align 4, !tbaa !34
  %23 = sext i32 %22 to i64
  %24 = getelementptr inbounds i8, ptr %21, i64 %23
  store i8 -20, ptr %24, align 1, !tbaa !51
  br label %25

25:                                               ; preds = %20
  %26 = load i32, ptr %7, align 4, !tbaa !34
  %27 = add nsw i32 %26, 1
  store i32 %27, ptr %7, align 4, !tbaa !34
  br label %15, !llvm.loop !82

28:                                               ; preds = %19
  call void @llvm.lifetime.start.p0(i64 4, ptr %8) #10
  %29 = getelementptr inbounds nuw %class.b3LauncherCL, ptr %14, i32 0, i32 5
  %30 = call noundef i32 @_ZNK20b3AlignedObjectArrayI15b3KernelArgDataE4sizeEv(ptr noundef nonnull align 8 dereferenceable(25) %29)
  store i32 %30, ptr %8, align 4, !tbaa !34
  call void @llvm.lifetime.start.p0(i64 4, ptr %9) #10
  store i32 0, ptr %9, align 4, !tbaa !34
  call void @llvm.lifetime.start.p0(i64 8, ptr %10) #10
  %31 = load ptr, ptr %5, align 8, !tbaa !13
  %32 = load i32, ptr %9, align 4, !tbaa !34
  %33 = sext i32 %32 to i64
  %34 = getelementptr inbounds i8, ptr %31, i64 %33
  store ptr %34, ptr %10, align 8, !tbaa !83
  %35 = load i32, ptr %8, align 4, !tbaa !34
  %36 = load ptr, ptr %10, align 8, !tbaa !83
  store i32 %35, ptr %36, align 4, !tbaa !34
  %37 = load i32, ptr %9, align 4, !tbaa !34
  %38 = sext i32 %37 to i64
  %39 = add i64 %38, 4
  %40 = trunc i64 %39 to i32
  store i32 %40, ptr %9, align 4, !tbaa !34
  call void @llvm.lifetime.start.p0(i64 4, ptr %11) #10
  store i32 0, ptr %11, align 4, !tbaa !34
  br label %41

41:                                               ; preds = %90, %28
  %42 = load i32, ptr %11, align 4, !tbaa !34
  %43 = getelementptr inbounds nuw %class.b3LauncherCL, ptr %14, i32 0, i32 5
  %44 = call noundef i32 @_ZNK20b3AlignedObjectArrayI15b3KernelArgDataE4sizeEv(ptr noundef nonnull align 8 dereferenceable(25) %43)
  %45 = icmp slt i32 %42, %44
  br i1 %45, label %47, label %46

46:                                               ; preds = %41
  call void @llvm.lifetime.end.p0(i64 4, ptr %11) #10
  br label %93

47:                                               ; preds = %41
  call void @llvm.lifetime.start.p0(i64 8, ptr %12) #10
  %48 = load ptr, ptr %5, align 8, !tbaa !13
  %49 = load i32, ptr %9, align 4, !tbaa !34
  %50 = sext i32 %49 to i64
  %51 = getelementptr inbounds i8, ptr %48, i64 %50
  store ptr %51, ptr %12, align 8, !tbaa !56
  %52 = getelementptr inbounds nuw %class.b3LauncherCL, ptr %14, i32 0, i32 5
  %53 = load i32, ptr %11, align 4, !tbaa !34
  %54 = call noundef nonnull align 16 dereferenceable(32) ptr @_ZN20b3AlignedObjectArrayI15b3KernelArgDataEixEi(ptr noundef nonnull align 8 dereferenceable(25) %52, i32 noundef %53)
  %55 = load ptr, ptr %12, align 8, !tbaa !56
  call void @llvm.memcpy.p0.p0.i64(ptr align 16 %55, ptr align 16 %54, i64 32, i1 false), !tbaa.struct !59
  %56 = load i32, ptr %9, align 4, !tbaa !34
  %57 = sext i32 %56 to i64
  %58 = add i64 %57, 32
  %59 = trunc i64 %58 to i32
  store i32 %59, ptr %9, align 4, !tbaa !34
  %60 = load ptr, ptr %12, align 8, !tbaa !56
  %61 = getelementptr inbounds nuw %struct.b3KernelArgData, ptr %60, i32 0, i32 0
  %62 = load i32, ptr %61, align 16, !tbaa !50
  %63 = icmp eq i32 %62, 1
  br i1 %63, label %64, label %89

64:                                               ; preds = %47
  call void @llvm.lifetime.start.p0(i64 4, ptr %13) #10
  store i32 0, ptr %13, align 4, !tbaa !34
  %65 = load ptr, ptr @__clewEnqueueReadBuffer, align 8, !tbaa !54
  %66 = getelementptr inbounds nuw %class.b3LauncherCL, ptr %14, i32 0, i32 1
  %67 = load ptr, ptr %66, align 8, !tbaa !17
  %68 = load ptr, ptr %12, align 8, !tbaa !56
  %69 = getelementptr inbounds nuw %struct.b3KernelArgData, ptr %68, i32 0, i32 4
  %70 = load ptr, ptr %69, align 16, !tbaa !51
  %71 = load ptr, ptr %12, align 8, !tbaa !56
  %72 = getelementptr inbounds nuw %struct.b3KernelArgData, ptr %71, i32 0, i32 2
  %73 = load i32, ptr %72, align 8, !tbaa !55
  %74 = sext i32 %73 to i64
  %75 = load ptr, ptr %5, align 8, !tbaa !13
  %76 = load i32, ptr %9, align 4, !tbaa !34
  %77 = sext i32 %76 to i64
  %78 = getelementptr inbounds i8, ptr %75, i64 %77
  %79 = call i32 %65(ptr noundef %67, ptr noundef %70, i32 noundef 0, i64 noundef 0, i64 noundef %74, ptr noundef %78, i32 noundef 0, ptr noundef null, ptr noundef null)
  store i32 %79, ptr %13, align 4, !tbaa !34
  %80 = load ptr, ptr @__clewFinish, align 8, !tbaa !54
  %81 = getelementptr inbounds nuw %class.b3LauncherCL, ptr %14, i32 0, i32 1
  %82 = load ptr, ptr %81, align 8, !tbaa !17
  %83 = call i32 %80(ptr noundef %82)
  %84 = load ptr, ptr %12, align 8, !tbaa !56
  %85 = getelementptr inbounds nuw %struct.b3KernelArgData, ptr %84, i32 0, i32 2
  %86 = load i32, ptr %85, align 8, !tbaa !55
  %87 = load i32, ptr %9, align 4, !tbaa !34
  %88 = add nsw i32 %87, %86
  store i32 %88, ptr %9, align 4, !tbaa !34
  call void @llvm.lifetime.end.p0(i64 4, ptr %13) #10
  br label %89

89:                                               ; preds = %64, %47
  call void @llvm.lifetime.end.p0(i64 8, ptr %12) #10
  br label %90

90:                                               ; preds = %89
  %91 = load i32, ptr %11, align 4, !tbaa !34
  %92 = add nsw i32 %91, 1
  store i32 %92, ptr %11, align 4, !tbaa !34
  br label %41, !llvm.loop !85

93:                                               ; preds = %46
  %94 = load i32, ptr %9, align 4, !tbaa !34
  call void @llvm.lifetime.end.p0(i64 8, ptr %10) #10
  call void @llvm.lifetime.end.p0(i64 4, ptr %9) #10
  call void @llvm.lifetime.end.p0(i64 4, ptr %8) #10
  ret i32 %94
}