; Function Attrs: mustprogress uwtable
define dso_local noundef i32 @_ZN12b3LauncherCL18serializeArgumentsEPhi(ptr noundef nonnull readonly align 8 captures(none) dereferenceable(112) %0, ptr noundef initializes((0, 4)) %1, i32 noundef %2) local_unnamed_addr #7 align 2 {
  %4 = icmp sgt i32 %2, 0
  br i1 %4, label %.lr.ph.preheader, label %._crit_edge

.lr.ph.preheader:                                 ; preds = %3
  %5 = zext nneg i32 %2 to i64
  tail call void @llvm.memset.p0.i64(ptr align 1 %1, i8 -20, i64 %5, i1 false), !tbaa !48
  br label %._crit_edge

._crit_edge:                                      ; preds = %.lr.ph.preheader, %3
  %6 = getelementptr inbounds nuw i8, ptr %0, i64 36
  %7 = load i32, ptr %6, align 4, !tbaa !26
  store i32 %7, ptr %1, align 4, !tbaa !37
  %8 = icmp sgt i32 %7, 0
  br i1 %8, label %.lr.ph31, label %._crit_edge32

.lr.ph31:                                         ; preds = %._crit_edge
  %9 = getelementptr inbounds nuw i8, ptr %0, i64 48
  %10 = getelementptr inbounds nuw i8, ptr %0, i64 8
  br label %11

._crit_edge32:                                    ; preds = %35, %._crit_edge
  %.025.lcssa = phi i32 [ 4, %._crit_edge ], [ %.1, %35 ]
  ret i32 %.025.lcssa

11:                                               ; preds = %.lr.ph31, %35
  %indvars.iv = phi i64 [ 0, %.lr.ph31 ], [ %indvars.iv.next, %35 ]
  %.02529 = phi i32 [ 4, %.lr.ph31 ], [ %.1, %35 ]
  %12 = sext i32 %.02529 to i64
  %13 = getelementptr inbounds i8, ptr %1, i64 %12
  %14 = load ptr, ptr %9, align 8, !tbaa !25
  %15 = getelementptr inbounds nuw %struct.b3KernelArgData, ptr %14, i64 %indvars.iv
  tail call void @llvm.memcpy.p0.p0.i64(ptr noundef nonnull align 16 dereferenceable(32) %13, ptr noundef nonnull align 16 dereferenceable(32) %15, i64 32, i1 false), !tbaa.struct !53
  %16 = add i32 %.02529, 32
  %17 = load i32, ptr %13, align 16, !tbaa !47
  %18 = icmp eq i32 %17, 1
  br i1 %18, label %19, label %35

19:                                               ; preds = %11
  %20 = load ptr, ptr @__clewEnqueueReadBuffer, align 8, !tbaa !49
  %21 = load ptr, ptr %10, align 8, !tbaa !7
  %22 = getelementptr inbounds nuw i8, ptr %13, i64 16
  %23 = load ptr, ptr %22, align 16, !tbaa !48
  %24 = getelementptr inbounds nuw i8, ptr %13, i64 8
  %25 = load i32, ptr %24, align 8, !tbaa !52
  %26 = sext i32 %25 to i64
  %27 = sext i32 %16 to i64
  %28 = getelementptr inbounds i8, ptr %1, i64 %27
  %29 = tail call i32 %20(ptr noundef %21, ptr noundef %23, i32 noundef 0, i64 noundef 0, i64 noundef %26, ptr noundef nonnull %28, i32 noundef 0, ptr noundef null, ptr noundef null)
  %30 = load ptr, ptr @__clewFinish, align 8, !tbaa !49
  %31 = load ptr, ptr %10, align 8, !tbaa !7
  %32 = tail call i32 %30(ptr noundef %31)
  %33 = load i32, ptr %24, align 8, !tbaa !52
  %34 = add nsw i32 %33, %16
  br label %35

35:                                               ; preds = %19, %11
  %.1 = phi i32 [ %34, %19 ], [ %16, %11 ]
  %indvars.iv.next = add nuw nsw i64 %indvars.iv, 1
  %36 = load i32, ptr %6, align 4, !tbaa !26
  %37 = sext i32 %36 to i64
  %38 = icmp slt i64 %indvars.iv.next, %37
  br i1 %38, label %11, label %._crit_edge32, !llvm.loop !72
}